target datalayout = "e-m:e-p270:32:32-p271:32:32-p272:64:64-i64:64-i128:128-f80:128-n8:16:32:64-S128"
target triple = "x86_64-pc-linux-gnu"

%struct.H5F_t = type { ptr, ptr, ptr, ptr, i32, ptr, i8, i8, ptr, i32 }
%struct.H5F_shared_t = type { ptr, ptr, ptr, i8, i32, i32, %struct.H5F_mtab_t, ptr, i8, i8, i64, i32, i32, i64, i64, ptr, ptr, %struct.H5AC_cache_config_t, %struct.H5AC_cache_image_config_t, i8, i8, ptr, i64, i32, i8, i64, i64, double, i64, i64, i64, i32, i32, i32, i8, i32, ptr, ptr, ptr, ptr, i8, i8, i8, i64, i64, ptr, ptr, i32, i64, i8, i32, i8, i64, i8, [13 x i32], [13 x i64], [13 x ptr], i8, i64, i64, [7 x i32], [7 x i32], %struct.H5F_blk_aggr_t, %struct.H5F_blk_aggr_t, i64, i64, %struct.H5F_meta_accum_t, i32, i32, [30 x ptr], %struct.H5F_object_flush_t, i8, ptr }
%struct.H5F_mtab_t = type { i32, i32, ptr }
%struct.H5AC_cache_config_t = type { i32, i8, i8, i8, [1025 x i8], i8, i8, i64, double, i64, i64, i64, i32, double, double, i8, i64, i32, double, double, i32, double, double, i8, i64, i32, i8, double, i64, i32 }
%struct.H5AC_cache_image_config_t = type { i32, i8, i8, i32 }
%struct.H5F_blk_aggr_t = type { i64, i64, i64, i64, i64 }
%struct.H5F_meta_accum_t = type { ptr, i64, i64, i64, i64, i64, i8 }
%struct.H5F_object_flush_t = type { ptr, ptr }

; Function Attrs: nounwind uwtable
define i32 @H5F_set_retries(ptr noundef %0) #0 {
  %2 = alloca ptr, align 8
  %3 = alloca double, align 8
  store ptr %0, ptr %2, align 8
  %4 = load ptr, ptr %2, align 8
  %5 = getelementptr inbounds %struct.H5F_t, ptr %4, i32 0, i32 2
  %6 = load ptr, ptr %5, align 8
  %7 = getelementptr inbounds %struct.H5F_shared_t, ptr %6, i32 0, i32 69
  %8 = getelementptr inbounds [30 x ptr], ptr %7, i64 0, i64 0
  call void @llvm.memset.p0.i64(ptr align 8 %8, i8 0, i64 240, i1 false)
  %9 = load ptr, ptr %2, align 8
  %10 = getelementptr inbounds %struct.H5F_t, ptr %9, i32 0, i32 2
  %11 = load ptr, ptr %10, align 8
  %12 = getelementptr inbounds %struct.H5F_shared_t, ptr %11, i32 0, i32 68
  store i32 0, ptr %12, align 4
  %13 = load ptr, ptr %2, align 8
  %14 = getelementptr inbounds %struct.H5F_t, ptr %13, i32 0, i32 2
  %15 = load ptr, ptr %14, align 8
  %16 = getelementptr inbounds %struct.H5F_shared_t, ptr %15, i32 0, i32 67
  %17 = load i32, ptr %16, align 8
  %18 = icmp ugt i32 %17, 1
  br i1 %18, label %19, label %34

19:                                               ; preds = %1
  %20 = load ptr, ptr %2, align 8
  %21 = getelementptr inbounds %struct.H5F_t, ptr %20, i32 0, i32 2
  %22 = load ptr, ptr %21, align 8
  %23 = getelementptr inbounds %struct.H5F_shared_t, ptr %22, i32 0, i32 67
  %24 = load i32, ptr %23, align 8
  %25 = uitofp i32 %24 to double
  %26 = call double @log10(double noundef %25) #10
  %27 = call double @llvm.ceil.f64(double %26)
  store double %27, ptr %3, align 8
  %28 = load double, ptr %3, align 8
  %29 = fptoui double %28 to i32
  %30 = load ptr, ptr %2, align 8
  %31 = getelementptr inbounds %struct.H5F_t, ptr %30, i32 0, i32 2
  %32 = load ptr, ptr %31, align 8
  %33 = getelementptr inbounds %struct.H5F_shared_t, ptr %32, i32 0, i32 68
  store i32 %29, ptr %33, align 4
  br label %34

34:                                               ; preds = %19, %1
  ret i32 0
}