; Function Attrs: mustprogress nofree nounwind willreturn memory(readwrite, inaccessiblemem: write) uwtable
define noundef i32 @H5F_set_retries(ptr nocapture noundef readonly %0) local_unnamed_addr #14 {
  %2 = getelementptr inbounds i8, ptr %0, i64 16
  %3 = load ptr, ptr %2, align 8
  %4 = getelementptr inbounds i8, ptr %3, i64 2064
  tail call void @llvm.memset.p0.i64(ptr noundef nonnull align 8 dereferenceable(240) %4, i8 0, i64 240, i1 false)
  %5 = load ptr, ptr %2, align 8
  %6 = getelementptr inbounds i8, ptr %5, i64 2060
  store i32 0, ptr %6, align 4
  %7 = load ptr, ptr %2, align 8
  %8 = getelementptr inbounds i8, ptr %7, i64 2056
  %9 = load i32, ptr %8, align 8
  %10 = icmp ugt i32 %9, 1
  br i1 %10, label %11, label %18

11:                                               ; preds = %1
  %12 = uitofp i32 %9 to double
  %13 = tail call double @log10(double noundef %12) #22
  %14 = tail call double @llvm.ceil.f64(double %13)
  %15 = fptoui double %14 to i32
  %16 = load ptr, ptr %2, align 8
  %17 = getelementptr inbounds i8, ptr %16, i64 2060
  store i32 %15, ptr %17, align 4
  br label %18

18:                                               ; preds = %11, %1
  ret i32 0
}